target datalayout = "e-m:e-p270:32:32-p271:32:32-p272:64:64-i64:64-i128:128-f80:128-n8:16:32:64-S128"
target triple = "x86_64-unknown-linux-gnu"

%"class.rocksdb::IterKey" = type { ptr, ptr, i64, i64, [39 x i8], i8 }

; Function Attrs: mustprogress uwtable
define linkonce_odr void @_ZN7rocksdb7IterKey21EnlargeBufferIfNeededEm(ptr noundef nonnull align 8 dereferenceable(72) %this, i64 noundef %key_size) #0 comdat align 2 {
entry:
  %this.addr = alloca ptr, align 8
  %key_size.addr = alloca i64, align 8
  store ptr %this, ptr %this.addr, align 8
  store i64 %key_size, ptr %key_size.addr, align 8
  %this1 = load ptr, ptr %this.addr, align 8
  %0 = load i64, ptr %key_size.addr, align 8
  %buf_size_ = getelementptr inbounds %"class.rocksdb::IterKey", ptr %this1, i32 0, i32 3
  %1 = load i64, ptr %buf_size_, align 8
  %cmp = icmp ugt i64 %0, %1
  br i1 %cmp, label %if.then, label %if.end

if.then:                                          ; preds = %entry
  %2 = load i64, ptr %key_size.addr, align 8
  call void @_ZN7rocksdb7IterKey13EnlargeBufferEm(ptr noundef nonnull align 8 dereferenceable(72) %this1, i64 noundef %2)
  br label %if.end

if.end:                                           ; preds = %if.then, %entry
  ret void
}

; Function Attrs: mustprogress nounwind uwtable
define linkonce_odr noundef zeroext i1 @_ZNK7rocksdb7IterKey11IsKeyPinnedEv(ptr noundef nonnull align 8 dereferenceable(72) %this) #1 comdat align 2 {
entry:
  %this.addr = alloca ptr, align 8
  store ptr %this, ptr %this.addr, align 8
  %this1 = load ptr, ptr %this.addr, align 8
  %key_ = getelementptr inbounds %"class.rocksdb::IterKey", ptr %this1, i32 0, i32 1
  %0 = load ptr, ptr %key_, align 8
  %buf_ = getelementptr inbounds %"class.rocksdb::IterKey", ptr %this1, i32 0, i32 0
  %1 = load ptr, ptr %buf_, align 8
  %cmp = icmp ne ptr %0, %1
  ret i1 %cmp
}

; Function Attrs: mustprogress uwtable
define linkonce_odr void @_ZN7rocksdb7IterKey10TrimAppendEmPKcm(ptr noundef nonnull align 8 dereferenceable(72) %this, i64 noundef %shared_len, ptr noundef %non_shared_data, i64 noundef %non_shared_len) #0 comdat align 2 {
entry:
  %this.addr = alloca ptr, align 8
  %shared_len.addr = alloca i64, align 8
  %non_shared_data.addr = alloca ptr, align 8
  %non_shared_len.addr = alloca i64, align 8
  %total_size = alloca i64, align 8
  %p = alloca ptr, align 8
  store ptr %this, ptr %this.addr, align 8
  store i64 %shared_len, ptr %shared_len.addr, align 8
  store ptr %non_shared_data, ptr %non_shared_data.addr, align 8
  store i64 %non_shared_len, ptr %non_shared_len.addr, align 8
  %this1 = load ptr, ptr %this.addr, align 8
  %0 = load i64, ptr %shared_len.addr, align 8
  %1 = load i64, ptr %non_shared_len.addr, align 8
  %add = add i64 %0, %1
  store i64 %add, ptr %total_size, align 8
  %call = call noundef zeroext i1 @_ZNK7rocksdb7IterKey11IsKeyPinnedEv(ptr noundef nonnull align 8 dereferenceable(72) %this1)
  br i1 %call, label %if.then, label %if.else

if.then:                                          ; preds = %entry
  %2 = load i64, ptr %total_size, align 8
  call void @_ZN7rocksdb7IterKey21EnlargeBufferIfNeededEm(ptr noundef nonnull align 8 dereferenceable(72) %this1, i64 noundef %2)
  %buf_ = getelementptr inbounds %"class.rocksdb::IterKey", ptr %this1, i32 0, i32 0
  %3 = load ptr, ptr %buf_, align 8
  %key_ = getelementptr inbounds %"class.rocksdb::IterKey", ptr %this1, i32 0, i32 1
  %4 = load ptr, ptr %key_, align 8
  %5 = load i64, ptr %shared_len.addr, align 8
  call void @llvm.memcpy.p0.p0.i64(ptr align 1 %3, ptr align 1 %4, i64 %5, i1 false)
  br label %if.end12

if.else:                                          ; preds = %entry
  %6 = load i64, ptr %total_size, align 8
  %buf_size_ = getelementptr inbounds %"class.rocksdb::IterKey", ptr %this1, i32 0, i32 3
  %7 = load i64, ptr %buf_size_, align 8
  %cmp = icmp ugt i64 %6, %7
  br i1 %cmp, label %if.then2, label %if.end11

if.then2:                                         ; preds = %if.else
  %8 = load i64, ptr %total_size, align 8
  %call3 = call noalias noundef nonnull ptr @_Znam(i64 noundef %8) #18
  store ptr %call3, ptr %p, align 8
  %9 = load ptr, ptr %p, align 8
  %key_4 = getelementptr inbounds %"class.rocksdb::IterKey", ptr %this1, i32 0, i32 1
  %10 = load ptr, ptr %key_4, align 8
  %11 = load i64, ptr %shared_len.addr, align 8
  call void @llvm.memcpy.p0.p0.i64(ptr align 1 %9, ptr align 1 %10, i64 %11, i1 false)
  %buf_5 = getelementptr inbounds %"class.rocksdb::IterKey", ptr %this1, i32 0, i32 0
  %12 = load ptr, ptr %buf_5, align 8
  %space_ = getelementptr inbounds %"class.rocksdb::IterKey", ptr %this1, i32 0, i32 4
  %arraydecay = getelementptr inbounds [39 x i8], ptr %space_, i64 0, i64 0
  %cmp6 = icmp ne ptr %12, %arraydecay
  br i1 %cmp6, label %if.then7, label %if.end

if.then7:                                         ; preds = %if.then2
  %buf_8 = getelementptr inbounds %"class.rocksdb::IterKey", ptr %this1, i32 0, i32 0
  %13 = load ptr, ptr %buf_8, align 8
  %isnull = icmp eq ptr %13, null
  br i1 %isnull, label %delete.end, label %delete.notnull

delete.notnull:                                   ; preds = %if.then7
  call void @_ZdaPv(ptr noundef %13) #19
  br label %delete.end

delete.end:                                       ; preds = %delete.notnull, %if.then7
  br label %if.end

if.end:                                           ; preds = %delete.end, %if.then2
  %14 = load ptr, ptr %p, align 8
  %buf_9 = getelementptr inbounds %"class.rocksdb::IterKey", ptr %this1, i32 0, i32 0
  store ptr %14, ptr %buf_9, align 8
  %15 = load i64, ptr %total_size, align 8
  %buf_size_10 = getelementptr inbounds %"class.rocksdb::IterKey", ptr %this1, i32 0, i32 3
  store i64 %15, ptr %buf_size_10, align 8
  br label %if.end11

if.end11:                                         ; preds = %if.end, %if.else
  br label %if.end12

if.end12:                                         ; preds = %if.end11, %if.then
  %buf_13 = getelementptr inbounds %"class.rocksdb::IterKey", ptr %this1, i32 0, i32 0
  %16 = load ptr, ptr %buf_13, align 8
  %17 = load i64, ptr %shared_len.addr, align 8
  %add.ptr = getelementptr inbounds i8, ptr %16, i64 %17
  %18 = load ptr, ptr %non_shared_data.addr, align 8
  %19 = load i64, ptr %non_shared_len.addr, align 8
  call void @llvm.memcpy.p0.p0.i64(ptr align 1 %add.ptr, ptr align 1 %18, i64 %19, i1 false)
  %buf_14 = getelementptr inbounds %"class.rocksdb::IterKey", ptr %this1, i32 0, i32 0
  %20 = load ptr, ptr %buf_14, align 8
  %key_15 = getelementptr inbounds %"class.rocksdb::IterKey", ptr %this1, i32 0, i32 1
  store ptr %20, ptr %key_15, align 8
  %21 = load i64, ptr %total_size, align 8
  %key_size_ = getelementptr inbounds %"class.rocksdb::IterKey", ptr %this1, i32 0, i32 2
  store i64 %21, ptr %key_size_, align 8
  ret void
}

; Function Attrs: mustprogress nounwind uwtable
define linkonce_odr noundef i64 @_ZNK7rocksdb7IterKey4SizeEv(ptr noundef nonnull align 8 dereferenceable(72) %this) #1 comdat align 2 {
entry:
  %this.addr = alloca ptr, align 8
  store ptr %this, ptr %this.addr, align 8
  %this1 = load ptr, ptr %this.addr, align 8
  %key_size_ = getelementptr inbounds %"class.rocksdb::IterKey", ptr %this1, i32 0, i32 2
  %0 = load i64, ptr %key_size_, align 8
  ret i64 %0
}

; Function Attrs: mustprogress nounwind uwtable
define linkonce_odr noundef ptr @_ZN7rocksdb14EncodeVarint64EPcm(ptr noundef %dst, i64 noundef %v) #1 comdat {
entry:
  %dst.addr = alloca ptr, align 8
  %v.addr = alloca i64, align 8
  %ptr = alloca ptr, align 8
  store ptr %dst, ptr %dst.addr, align 8
  store i64 %v, ptr %v.addr, align 8
  %0 = load ptr, ptr %dst.addr, align 8
  store ptr %0, ptr %ptr, align 8
  br label %while.cond

while.cond:                                       ; preds = %while.body, %entry
  %1 = load i64, ptr %v.addr, align 8
  %cmp = icmp uge i64 %1, 128
  br i1 %cmp, label %while.body, label %while.end

while.body:                                       ; preds = %while.cond
  %2 = load i64, ptr %v.addr, align 8
  %and = and i64 %2, 127
  %or = or i64 %and, 128
  %conv = trunc i64 %or to i8
  %3 = load ptr, ptr %ptr, align 8
  %incdec.ptr = getelementptr inbounds i8, ptr %3, i32 1
  store ptr %incdec.ptr, ptr %ptr, align 8
  store i8 %conv, ptr %3, align 1
  %4 = load i64, ptr %v.addr, align 8
  %shr = lshr i64 %4, 7
  store i64 %shr, ptr %v.addr, align 8
  br label %while.cond, !llvm.loop !11

while.end:                                        ; preds = %while.cond
  %5 = load i64, ptr %v.addr, align 8
  %conv1 = trunc i64 %5 to i8
  %6 = load ptr, ptr %ptr, align 8
  %incdec.ptr2 = getelementptr inbounds i8, ptr %6, i32 1
  store ptr %incdec.ptr2, ptr %ptr, align 8
  store i8 %conv1, ptr %6, align 1
  %7 = load ptr, ptr %ptr, align 8
  ret ptr %7
}

; Function Attrs: mustprogress uwtable
define internal void @_ZN7rocksdb12_GLOBAL__N_114AppendVarint64EPNS_7IterKeyEm(ptr noundef %key, i64 noundef %v) #0 {
entry:
  %key.addr = alloca ptr, align 8
  %v.addr = alloca i64, align 8
  %buf = alloca [10 x i8], align 1
  %ptr = alloca ptr, align 8
  store ptr %key, ptr %key.addr, align 8
  store i64 %v, ptr %v.addr, align 8
  %arraydecay = getelementptr inbounds [10 x i8], ptr %buf, i64 0, i64 0
  %0 = load i64, ptr %v.addr, align 8
  %call = call noundef ptr @_ZN7rocksdb14EncodeVarint64EPcm(ptr noundef %arraydecay, i64 noundef %0)
  store ptr %call, ptr %ptr, align 8
  %1 = load ptr, ptr %key.addr, align 8
  %2 = load ptr, ptr %key.addr, align 8
  %call1 = call noundef i64 @_ZNK7rocksdb7IterKey4SizeEv(ptr noundef nonnull align 8 dereferenceable(72) %2)
  %arraydecay2 = getelementptr inbounds [10 x i8], ptr %buf, i64 0, i64 0
  %3 = load ptr, ptr %ptr, align 8
  %arraydecay3 = getelementptr inbounds [10 x i8], ptr %buf, i64 0, i64 0
  %sub.ptr.lhs.cast = ptrtoint ptr %3 to i64
  %sub.ptr.rhs.cast = ptrtoint ptr %arraydecay3 to i64
  %sub.ptr.sub = sub i64 %sub.ptr.lhs.cast, %sub.ptr.rhs.cast
  call void @_ZN7rocksdb7IterKey10TrimAppendEmPKcm(ptr noundef nonnull align 8 dereferenceable(72) %1, i64 noundef %call1, ptr noundef %arraydecay2, i64 noundef %sub.ptr.sub)
  ret void
}