; Function Attrs: mustprogress uwtable
define internal fastcc void @_ZN7rocksdb12_GLOBAL__N_114AppendVarint64EPNS_7IterKeyEm(ptr noundef %key, i64 noundef %v) unnamed_addr #2 {
entry:
  %buf = alloca [10 x i8], align 1
  %cmp6.i = icmp ugt i64 %v, 127
  br i1 %cmp6.i, label %while.body.i, label %_ZN7rocksdb14EncodeVarint64EPcm.exit

while.body.i:                                     ; preds = %entry, %while.body.i
  %ptr.08.i = phi ptr [ %incdec.ptr.i, %while.body.i ], [ %buf, %entry ]
  %v.addr.07.i = phi i64 [ %shr.i, %while.body.i ], [ %v, %entry ]
  %0 = trunc i64 %v.addr.07.i to i8
  %conv.i = or i8 %0, -128
  %incdec.ptr.i = getelementptr inbounds i8, ptr %ptr.08.i, i64 1
  store i8 %conv.i, ptr %ptr.08.i, align 1
  %shr.i = lshr i64 %v.addr.07.i, 7
  %cmp.i = icmp ugt i64 %v.addr.07.i, 16383
  br i1 %cmp.i, label %while.body.i, label %_ZN7rocksdb14EncodeVarint64EPcm.exit, !llvm.loop !48

_ZN7rocksdb14EncodeVarint64EPcm.exit:             ; preds = %while.body.i, %entry
  %v.addr.0.lcssa.i = phi i64 [ %v, %entry ], [ %shr.i, %while.body.i ]
  %ptr.0.lcssa.i = phi ptr [ %buf, %entry ], [ %incdec.ptr.i, %while.body.i ]
  %conv1.i = trunc i64 %v.addr.0.lcssa.i to i8
  %incdec.ptr2.i = getelementptr inbounds i8, ptr %ptr.0.lcssa.i, i64 1
  store i8 %conv1.i, ptr %ptr.0.lcssa.i, align 1
  %key_size_.i = getelementptr inbounds i8, ptr %key, i64 16
  %1 = load i64, ptr %key_size_.i, align 8
  %sub.ptr.lhs.cast = ptrtoint ptr %incdec.ptr2.i to i64
  %sub.ptr.rhs.cast = ptrtoint ptr %buf to i64
  %sub.ptr.sub = sub i64 %sub.ptr.lhs.cast, %sub.ptr.rhs.cast
  %add.i = add i64 %sub.ptr.sub, %1
  %key_.i.i = getelementptr inbounds i8, ptr %key, i64 8
  %2 = load ptr, ptr %key_.i.i, align 8
  %3 = load ptr, ptr %key, align 8
  %cmp.i.not.i = icmp eq ptr %2, %3
  %buf_size_.i = getelementptr inbounds i8, ptr %key, i64 24
  %4 = load i64, ptr %buf_size_.i, align 8
  br i1 %cmp.i.not.i, label %if.else.i, label %if.then.i

if.then.i:                                        ; preds = %_ZN7rocksdb14EncodeVarint64EPcm.exit
  %cmp.i10.i = icmp ult i64 %4, %add.i
  br i1 %cmp.i10.i, label %if.then.i.i, label %_ZN7rocksdb7IterKey21EnlargeBufferIfNeededEm.exit.i

if.then.i.i:                                      ; preds = %if.then.i
  call void @_ZN7rocksdb7IterKey13EnlargeBufferEm(ptr noundef nonnull align 8 dereferenceable(72) %key, i64 noundef %add.i)
  %.pre.i = load ptr, ptr %key, align 8
  %.pre11.i = load ptr, ptr %key_.i.i, align 8
  br label %_ZN7rocksdb7IterKey21EnlargeBufferIfNeededEm.exit.i

_ZN7rocksdb7IterKey21EnlargeBufferIfNeededEm.exit.i: ; preds = %if.then.i.i, %if.then.i
  %5 = phi ptr [ %2, %if.then.i ], [ %.pre11.i, %if.then.i.i ]
  %6 = phi ptr [ %3, %if.then.i ], [ %.pre.i, %if.then.i.i ]
  call void @llvm.memcpy.p0.p0.i64(ptr align 1 %6, ptr align 1 %5, i64 %1, i1 false)
  %.pre12.i = load ptr, ptr %key, align 8
  br label %_ZN7rocksdb7IterKey10TrimAppendEmPKcm.exit

if.else.i:                                        ; preds = %_ZN7rocksdb14EncodeVarint64EPcm.exit
  %cmp.i3 = icmp ugt i64 %add.i, %4
  br i1 %cmp.i3, label %if.then2.i, label %_ZN7rocksdb7IterKey10TrimAppendEmPKcm.exit

if.then2.i:                                       ; preds = %if.else.i
  %call3.i = call noalias noundef nonnull ptr @_Znam(i64 noundef %add.i) #20
  call void @llvm.memcpy.p0.p0.i64(ptr nonnull align 1 %call3.i, ptr align 1 %2, i64 %1, i1 false)
  %space_.i = getelementptr inbounds i8, ptr %key, i64 32
  %cmp6.not.i = icmp eq ptr %2, %space_.i
  %isnull.i = icmp eq ptr %2, null
  %or.cond.i = or i1 %cmp6.not.i, %isnull.i
  br i1 %or.cond.i, label %if.end.i, label %delete.notnull.i

delete.notnull.i:                                 ; preds = %if.then2.i
  call void @_ZdaPv(ptr noundef nonnull %2) #18
  br label %if.end.i

if.end.i:                                         ; preds = %delete.notnull.i, %if.then2.i
  store ptr %call3.i, ptr %key, align 8
  store i64 %add.i, ptr %buf_size_.i, align 8
  br label %_ZN7rocksdb7IterKey10TrimAppendEmPKcm.exit

_ZN7rocksdb7IterKey10TrimAppendEmPKcm.exit:       ; preds = %_ZN7rocksdb7IterKey21EnlargeBufferIfNeededEm.exit.i, %if.else.i, %if.end.i
  %7 = phi ptr [ %2, %if.else.i ], [ %call3.i, %if.end.i ], [ %.pre12.i, %_ZN7rocksdb7IterKey21EnlargeBufferIfNeededEm.exit.i ]
  %add.ptr.i = getelementptr inbounds i8, ptr %7, i64 %1
  call void @llvm.memcpy.p0.p0.i64(ptr align 1 %add.ptr.i, ptr nonnull align 1 %buf, i64 %sub.ptr.sub, i1 false)
  %8 = load ptr, ptr %key, align 8
  store ptr %8, ptr %key_.i.i, align 8
  store i64 %add.i, ptr %key_size_.i, align 8
  ret void
}